; ModuleID = '19/1417.c'
source_filename = "19/1417.c"
target datalayout = "e-m:e-p270:32:32-p271:32:32-p272:64:64-i64:64-f80:128-n8:16:32:64-S128"
target triple = "x86_64-pc-linux-gnu"

@.str = private unnamed_addr constant [3 x i8] c"%s\00", align 1
@.str.1 = private unnamed_addr constant [4 x i8] c" %s\00", align 1

; Function Attrs: noinline nounwind uwtable
define dso_local i32 @main() #0 {
  %1 = alloca i32, align 4
  %2 = alloca [256 x i8], align 16
  %3 = alloca [50 x [256 x i8]], align 16
  %4 = alloca [100 x i8], align 16
  %5 = alloca [100 x i8], align 16
  %6 = alloca i32, align 4
  %7 = alloca i32, align 4
  %8 = alloca i32, align 4
  %9 = alloca i32, align 4
  %10 = alloca i32, align 4
  %11 = alloca i32, align 4
  store i32 0, i32* %1, align 4
  %12 = bitcast [50 x [256 x i8]]* %3 to i8*
  call void @llvm.memset.p0i8.i64(i8* align 16 %12, i8 0, i64 12800, i1 false)
  store i32 1, i32* %6, align 4
  store i32 1, i32* %7, align 4
  store i32 -1, i32* %10, align 4
  %13 = getelementptr inbounds [256 x i8], [256 x i8]* %2, i64 0, i64 0
  %14 = call i32 (i8*, ...) bitcast (i32 (...)* @gets to i32 (i8*, ...)*)(i8* %13)
  %15 = getelementptr inbounds [100 x i8], [100 x i8]* %4, i64 0, i64 0
  %16 = call i32 (i8*, ...) bitcast (i32 (...)* @gets to i32 (i8*, ...)*)(i8* %15)
  %17 = getelementptr inbounds [100 x i8], [100 x i8]* %5, i64 0, i64 0
  %18 = call i32 (i8*, ...) bitcast (i32 (...)* @gets to i32 (i8*, ...)*)(i8* %17)
  store i32 0, i32* %8, align 4
  br label %19

19:                                               ; preds = %37, %0
  %20 = load i32, i32* %8, align 4
  %21 = sext i32 %20 to i64
  %22 = getelementptr inbounds [256 x i8], [256 x i8]* %2, i64 0, i64 %21
  %23 = load i8, i8* %22, align 1
  %24 = sext i8 %23 to i32
  %25 = icmp ne i32 %24, 0
  br i1 %25, label %26, label %40

26:                                               ; preds = %19
  %27 = load i32, i32* %8, align 4
  %28 = sext i32 %27 to i64
  %29 = getelementptr inbounds [256 x i8], [256 x i8]* %2, i64 0, i64 %28
  %30 = load i8, i8* %29, align 1
  %31 = sext i8 %30 to i32
  %32 = icmp eq i32 %31, 32
  br i1 %32, label %33, label %36

33:                                               ; preds = %26
  %34 = load i32, i32* %6, align 4
  %35 = add nsw i32 %34, 1
  store i32 %35, i32* %6, align 4
  br label %36

36:                                               ; preds = %33, %26
  br label %37

37:                                               ; preds = %36
  %38 = load i32, i32* %8, align 4
  %39 = add nsw i32 %38, 1
  store i32 %39, i32* %8, align 4
  br label %19

40:                                               ; preds = %19
  store i32 0, i32* %8, align 4
  br label %41

41:                                               ; preds = %81, %40
  %42 = load i32, i32* %8, align 4
  %43 = load i32, i32* %6, align 4
  %44 = icmp slt i32 %42, %43
  br i1 %44, label %45, label %84

45:                                               ; preds = %41
  %46 = load i32, i32* %10, align 4
  %47 = add nsw i32 %46, 1
  store i32 %47, i32* %10, align 4
  store i32 0, i32* %9, align 4
  br label %48

48:                                               ; preds = %75, %45
  %49 = load i32, i32* %10, align 4
  %50 = sext i32 %49 to i64
  %51 = getelementptr inbounds [256 x i8], [256 x i8]* %2, i64 0, i64 %50
  %52 = load i8, i8* %51, align 1
  %53 = sext i8 %52 to i32
  %54 = icmp ne i32 %53, 0
  br i1 %54, label %55, label %62

55:                                               ; preds = %48
  %56 = load i32, i32* %10, align 4
  %57 = sext i32 %56 to i64
  %58 = getelementptr inbounds [256 x i8], [256 x i8]* %2, i64 0, i64 %57
  %59 = load i8, i8* %58, align 1
  %60 = sext i8 %59 to i32
  %61 = icmp ne i32 %60, 32
  br label %62

62:                                               ; preds = %55, %48
  %63 = phi i1 [ false, %48 ], [ %61, %55 ]
  br i1 %63, label %64, label %80

64:                                               ; preds = %62
  %65 = load i32, i32* %10, align 4
  %66 = sext i32 %65 to i64
  %67 = getelementptr inbounds [256 x i8], [256 x i8]* %2, i64 0, i64 %66
  %68 = load i8, i8* %67, align 1
  %69 = load i32, i32* %8, align 4
  %70 = sext i32 %69 to i64
  %71 = getelementptr inbounds [50 x [256 x i8]], [50 x [256 x i8]]* %3, i64 0, i64 %70
  %72 = load i32, i32* %9, align 4
  %73 = sext i32 %72 to i64
  %74 = getelementptr inbounds [256 x i8], [256 x i8]* %71, i64 0, i64 %73
  store i8 %68, i8* %74, align 1
  br label %75

75:                                               ; preds = %64
  %76 = load i32, i32* %9, align 4
  %77 = add nsw i32 %76, 1
  store i32 %77, i32* %9, align 4
  %78 = load i32, i32* %10, align 4
  %79 = add nsw i32 %78, 1
  store i32 %79, i32* %10, align 4
  br label %48

80:                                               ; preds = %62
  br label %81

81:                                               ; preds = %80
  %82 = load i32, i32* %8, align 4
  %83 = add nsw i32 %82, 1
  store i32 %83, i32* %8, align 4
  br label %41

84:                                               ; preds = %41
  store i32 0, i32* %8, align 4
  br label %85

85:                                               ; preds = %106, %84
  %86 = load i32, i32* %8, align 4
  %87 = load i32, i32* %6, align 4
  %88 = icmp slt i32 %86, %87
  br i1 %88, label %89, label %109

89:                                               ; preds = %85
  %90 = load i32, i32* %8, align 4
  %91 = sext i32 %90 to i64
  %92 = getelementptr inbounds [50 x [256 x i8]], [50 x [256 x i8]]* %3, i64 0, i64 %91
  %93 = getelementptr inbounds [256 x i8], [256 x i8]* %92, i64 0, i64 0
  %94 = getelementptr inbounds [100 x i8], [100 x i8]* %4, i64 0, i64 0
  %95 = call i32 @strcmp(i8* %93, i8* %94) #5
  store i32 %95, i32* %11, align 4
  %96 = load i32, i32* %11, align 4
  %97 = icmp eq i32 %96, 0
  br i1 %97, label %98, label %105

98:                                               ; preds = %89
  %99 = load i32, i32* %8, align 4
  %100 = sext i32 %99 to i64
  %101 = getelementptr inbounds [50 x [256 x i8]], [50 x [256 x i8]]* %3, i64 0, i64 %100
  %102 = getelementptr inbounds [256 x i8], [256 x i8]* %101, i64 0, i64 0
  %103 = getelementptr inbounds [100 x i8], [100 x i8]* %5, i64 0, i64 0
  %104 = call i8* @strcpy(i8* %102, i8* %103) #6
  store i32 0, i32* %7, align 4
  br label %105

105:                                              ; preds = %98, %89
  br label %106

106:                                              ; preds = %105
  %107 = load i32, i32* %8, align 4
  %108 = add nsw i32 %107, 1
  store i32 %108, i32* %8, align 4
  br label %85

109:                                              ; preds = %85
  %110 = load i32, i32* %7, align 4
  %111 = icmp eq i32 %110, 0
  br i1 %111, label %112, label %130

112:                                              ; preds = %109
  %113 = getelementptr inbounds [50 x [256 x i8]], [50 x [256 x i8]]* %3, i64 0, i64 0
  %114 = getelementptr inbounds [256 x i8], [256 x i8]* %113, i64 0, i64 0
  %115 = call i32 (i8*, ...) @printf(i8* getelementptr inbounds ([3 x i8], [3 x i8]* @.str, i64 0, i64 0), i8* %114)
  store i32 1, i32* %8, align 4
  br label %116

116:                                              ; preds = %126, %112
  %117 = load i32, i32* %8, align 4
  %118 = load i32, i32* %6, align 4
  %119 = icmp slt i32 %117, %118
  br i1 %119, label %120, label %129

120:                                              ; preds = %116
  %121 = load i32, i32* %8, align 4
  %122 = sext i32 %121 to i64
  %123 = getelementptr inbounds [50 x [256 x i8]], [50 x [256 x i8]]* %3, i64 0, i64 %122
  %124 = getelementptr inbounds [256 x i8], [256 x i8]* %123, i64 0, i64 0
  %125 = call i32 (i8*, ...) @printf(i8* getelementptr inbounds ([4 x i8], [4 x i8]* @.str.1, i64 0, i64 0), i8* %124)
  br label %126

126:                                              ; preds = %120
  %127 = load i32, i32* %8, align 4
  %128 = add nsw i32 %127, 1
  store i32 %128, i32* %8, align 4
  br label %116

129:                                              ; preds = %116
  br label %130

130:                                              ; preds = %129, %109
  %131 = load i32, i32* %7, align 4
  %132 = icmp eq i32 %131, 1
  br i1 %132, label %133, label %136

133:                                              ; preds = %130
  %134 = getelementptr inbounds [256 x i8], [256 x i8]* %2, i64 0, i64 0
  %135 = call i32 (i8*, ...) @printf(i8* getelementptr inbounds ([3 x i8], [3 x i8]* @.str, i64 0, i64 0), i8* %134)
  br label %136

136:                                              ; preds = %133, %130
  ret i32 0
}

; Function Attrs: argmemonly nounwind willreturn
declare void @llvm.memset.p0i8.i64(i8* nocapture writeonly, i8, i64, i1 immarg) #1

declare dso_local i32 @gets(...) #2

; Function Attrs: nounwind readonly
declare dso_local i32 @strcmp(i8*, i8*) #3

; Function Attrs: nounwind
declare dso_local i8* @strcpy(i8*, i8*) #4

declare dso_local i32 @printf(i8*, ...) #2


!llvm.module.flags = !{!0}
!llvm.ident = !{!1}

!0 = !{i32 1, !"wchar_size", i32 4}
!1 = !{!"clang version 10.0.0-4ubuntu1 "}
